; Function Attrs: inlinehint nofree nounwind memory(read, inaccessiblemem: none) uwtable
define internal fastcc ptr @pmix_cmd_line_get_param(ptr noundef readonly captures(address) %0, ptr noundef readonly captures(none) %1) unnamed_addr #14 {
  %3 = getelementptr inbounds nuw i8, ptr %0, i64 240
  %4 = getelementptr inbounds nuw i8, ptr %0, i64 360
  %.09 = load ptr, ptr %4, align 8, !tbaa !29
  %.not10 = icmp eq ptr %.09, %3
  br i1 %.not10, label %._crit_edge, label %.lr.ph

.lr.ph:                                           ; preds = %2, %9
  %.011 = phi ptr [ %.0, %9 ], [ %.09, %2 ]
  %5 = getelementptr inbounds nuw i8, ptr %.011, i64 144
  %6 = load ptr, ptr %5, align 8, !tbaa !30
  %7 = tail call i32 @strcmp(ptr noundef nonnull dereferenceable(1) %6, ptr noundef nonnull dereferenceable(1) %1) #20
  %8 = icmp eq i32 %7, 0
  br i1 %8, label %._crit_edge, label %9

9:                                                ; preds = %.lr.ph
  %10 = getelementptr inbounds nuw i8, ptr %.011, i64 120
  %.0 = load ptr, ptr %10, align 8, !tbaa !29
  %.not = icmp eq ptr %.0, %3
  br i1 %.not, label %._crit_edge, label %.lr.ph, !llvm.loop !47

._crit_edge:                                      ; preds = %.lr.ph, %9, %2
  %.08 = phi ptr [ null, %2 ], [ null, %9 ], [ %.011, %.lr.ph ]
  ret ptr %.08
}